target datalayout = "e-m:e-p270:32:32-p271:32:32-p272:64:64-i64:64-i128:128-f80:128-n8:16:32:64-S128"
target triple = "x86_64-pc-linux-gnu"

%class.MemRegion = type { ptr, i64 }

@g_assert_poison = external global ptr, align 8
@.str = private unnamed_addr constant [39 x i8] c"src/hotspot/share/memory/memRegion.cpp\00", align 1
@.str.4 = private unnamed_addr constant [24 x i8] c"guarantee(false) failed\00", align 1
@.str.5 = private unnamed_addr constant [31 x i8] c"MemRegion::minus, but interior\00", align 1

; Function Attrs: mustprogress nounwind uwtable
define linkonce_odr hidden noundef i64 @_Z13pointer_deltaPVKvS0_m(ptr noundef %0, ptr noundef %1, i64 noundef %2) #1 comdat {
  %4 = alloca ptr, align 8
  %5 = alloca ptr, align 8
  %6 = alloca i64, align 8
  store ptr %0, ptr %4, align 8
  store ptr %1, ptr %5, align 8
  store i64 %2, ptr %6, align 8
  %7 = load ptr, ptr %4, align 8
  %8 = ptrtoint ptr %7 to i64
  %9 = load ptr, ptr %5, align 8
  %10 = ptrtoint ptr %9 to i64
  %11 = sub i64 %8, %10
  %12 = load i64, ptr %6, align 8
  %13 = udiv i64 %11, %12
  ret i64 %13
}

; Function Attrs: mustprogress nounwind uwtable
define linkonce_odr hidden noundef i64 @_Z13pointer_deltaPKP12HeapWordImplS2_(ptr noundef %0, ptr noundef %1) #1 comdat {
  %3 = alloca ptr, align 8
  %4 = alloca ptr, align 8
  store ptr %0, ptr %3, align 8
  store ptr %1, ptr %4, align 8
  %5 = load ptr, ptr %3, align 8
  %6 = load ptr, ptr %4, align 8
  %7 = call noundef i64 @_Z13pointer_deltaPVKvS0_m(ptr noundef %5, ptr noundef %6, i64 noundef 8)
  ret i64 %7
}

; Function Attrs: mustprogress nounwind uwtable
define linkonce_odr hidden void @_ZN9MemRegionC2Ev(ptr noundef nonnull align 8 dereferenceable(16) %0) unnamed_addr #1 comdat align 2 {
  %2 = alloca ptr, align 8
  store ptr %0, ptr %2, align 8
  %3 = load ptr, ptr %2, align 8
  %4 = getelementptr inbounds %class.MemRegion, ptr %3, i32 0, i32 0
  store ptr null, ptr %4, align 8
  %5 = getelementptr inbounds %class.MemRegion, ptr %3, i32 0, i32 1
  store i64 0, ptr %5, align 8
  ret void
}

; Function Attrs: mustprogress nounwind uwtable
define linkonce_odr hidden void @_ZN9MemRegionC2EPP12HeapWordImplS2_(ptr noundef nonnull align 8 dereferenceable(16) %0, ptr noundef %1, ptr noundef %2) unnamed_addr #1 comdat align 2 {
  %4 = alloca ptr, align 8
  %5 = alloca ptr, align 8
  %6 = alloca ptr, align 8
  store ptr %0, ptr %4, align 8
  store ptr %1, ptr %5, align 8
  store ptr %2, ptr %6, align 8
  %7 = load ptr, ptr %4, align 8
  %8 = getelementptr inbounds %class.MemRegion, ptr %7, i32 0, i32 0
  %9 = load ptr, ptr %5, align 8
  store ptr %9, ptr %8, align 8
  %10 = getelementptr inbounds %class.MemRegion, ptr %7, i32 0, i32 1
  %11 = load ptr, ptr %6, align 8
  %12 = load ptr, ptr %5, align 8
  %13 = call noundef i64 @_Z13pointer_deltaPKP12HeapWordImplS2_(ptr noundef %11, ptr noundef %12)
  store i64 %13, ptr %10, align 8
  ret void
}

; Function Attrs: mustprogress nounwind uwtable
define linkonce_odr hidden noundef ptr @_ZNK9MemRegion5startEv(ptr noundef nonnull align 8 dereferenceable(16) %0) #1 comdat align 2 {
  %2 = alloca ptr, align 8
  store ptr %0, ptr %2, align 8
  %3 = load ptr, ptr %2, align 8
  %4 = getelementptr inbounds %class.MemRegion, ptr %3, i32 0, i32 0
  %5 = load ptr, ptr %4, align 8
  ret ptr %5
}

; Function Attrs: mustprogress nounwind uwtable
define linkonce_odr hidden noundef ptr @_ZNK9MemRegion3endEv(ptr noundef nonnull align 8 dereferenceable(16) %0) #1 comdat align 2 {
  %2 = alloca ptr, align 8
  store ptr %0, ptr %2, align 8
  %3 = load ptr, ptr %2, align 8
  %4 = getelementptr inbounds %class.MemRegion, ptr %3, i32 0, i32 0
  %5 = load ptr, ptr %4, align 8
  %6 = getelementptr inbounds %class.MemRegion, ptr %3, i32 0, i32 1
  %7 = load i64, ptr %6, align 8
  %8 = getelementptr inbounds ptr, ptr %5, i64 %7
  ret ptr %8
}

; Function Attrs: mustprogress nounwind uwtable
define hidden { ptr, i64 } @_ZNK9MemRegion5minusES_(ptr noundef nonnull align 8 dereferenceable(16) %0, ptr %1, i64 %2) #1 align 2 {
  %4 = alloca %class.MemRegion, align 8
  %5 = alloca %class.MemRegion, align 8
  %6 = alloca ptr, align 8
  %7 = getelementptr inbounds { ptr, i64 }, ptr %5, i32 0, i32 0
  store ptr %1, ptr %7, align 8
  %8 = getelementptr inbounds { ptr, i64 }, ptr %5, i32 0, i32 1
  store i64 %2, ptr %8, align 8
  store ptr %0, ptr %6, align 8
  %9 = load ptr, ptr %6, align 8
  %10 = call noundef ptr @_ZNK9MemRegion3endEv(ptr noundef nonnull align 8 dereferenceable(16) %5)
  %11 = call noundef ptr @_ZNK9MemRegion5startEv(ptr noundef nonnull align 8 dereferenceable(16) %9)
  %12 = icmp ule ptr %10, %11
  br i1 %12, label %13, label %16

13:                                               ; preds = %3
  %14 = call noundef ptr @_ZNK9MemRegion5startEv(ptr noundef nonnull align 8 dereferenceable(16) %9)
  %15 = call noundef ptr @_ZNK9MemRegion3endEv(ptr noundef nonnull align 8 dereferenceable(16) %9)
  call void @_ZN9MemRegionC2EPP12HeapWordImplS2_(ptr noundef nonnull align 8 dereferenceable(16) %4, ptr noundef %14, ptr noundef %15)
  br label %70

16:                                               ; preds = %3
  %17 = call noundef ptr @_ZNK9MemRegion5startEv(ptr noundef nonnull align 8 dereferenceable(16) %5)
  %18 = call noundef ptr @_ZNK9MemRegion5startEv(ptr noundef nonnull align 8 dereferenceable(16) %9)
  %19 = icmp ule ptr %17, %18
  br i1 %19, label %20, label %27

20:                                               ; preds = %16
  %21 = call noundef ptr @_ZNK9MemRegion3endEv(ptr noundef nonnull align 8 dereferenceable(16) %5)
  %22 = call noundef ptr @_ZNK9MemRegion3endEv(ptr noundef nonnull align 8 dereferenceable(16) %9)
  %23 = icmp ule ptr %21, %22
  br i1 %23, label %24, label %27

24:                                               ; preds = %20
  %25 = call noundef ptr @_ZNK9MemRegion3endEv(ptr noundef nonnull align 8 dereferenceable(16) %5)
  %26 = call noundef ptr @_ZNK9MemRegion3endEv(ptr noundef nonnull align 8 dereferenceable(16) %9)
  call void @_ZN9MemRegionC2EPP12HeapWordImplS2_(ptr noundef nonnull align 8 dereferenceable(16) %4, ptr noundef %25, ptr noundef %26)
  br label %70

27:                                               ; preds = %20, %16
  %28 = call noundef ptr @_ZNK9MemRegion5startEv(ptr noundef nonnull align 8 dereferenceable(16) %5)
  %29 = call noundef ptr @_ZNK9MemRegion3endEv(ptr noundef nonnull align 8 dereferenceable(16) %9)
  %30 = icmp uge ptr %28, %29
  br i1 %30, label %31, label %34

31:                                               ; preds = %27
  %32 = call noundef ptr @_ZNK9MemRegion5startEv(ptr noundef nonnull align 8 dereferenceable(16) %9)
  %33 = call noundef ptr @_ZNK9MemRegion3endEv(ptr noundef nonnull align 8 dereferenceable(16) %9)
  call void @_ZN9MemRegionC2EPP12HeapWordImplS2_(ptr noundef nonnull align 8 dereferenceable(16) %4, ptr noundef %32, ptr noundef %33)
  br label %70

34:                                               ; preds = %27
  %35 = call noundef ptr @_ZNK9MemRegion5startEv(ptr noundef nonnull align 8 dereferenceable(16) %5)
  %36 = call noundef ptr @_ZNK9MemRegion5startEv(ptr noundef nonnull align 8 dereferenceable(16) %9)
  %37 = icmp uge ptr %35, %36
  br i1 %37, label %38, label %45

38:                                               ; preds = %34
  %39 = call noundef ptr @_ZNK9MemRegion3endEv(ptr noundef nonnull align 8 dereferenceable(16) %5)
  %40 = call noundef ptr @_ZNK9MemRegion3endEv(ptr noundef nonnull align 8 dereferenceable(16) %9)
  %41 = icmp uge ptr %39, %40
  br i1 %41, label %42, label %45

42:                                               ; preds = %38
  %43 = call noundef ptr @_ZNK9MemRegion5startEv(ptr noundef nonnull align 8 dereferenceable(16) %9)
  %44 = call noundef ptr @_ZNK9MemRegion5startEv(ptr noundef nonnull align 8 dereferenceable(16) %5)
  call void @_ZN9MemRegionC2EPP12HeapWordImplS2_(ptr noundef nonnull align 8 dereferenceable(16) %4, ptr noundef %43, ptr noundef %44)
  br label %70

45:                                               ; preds = %38, %34
  %46 = call noundef ptr @_ZNK9MemRegion5startEv(ptr noundef nonnull align 8 dereferenceable(16) %5)
  %47 = call noundef ptr @_ZNK9MemRegion5startEv(ptr noundef nonnull align 8 dereferenceable(16) %9)
  %48 = icmp ule ptr %46, %47
  br i1 %48, label %49, label %54

49:                                               ; preds = %45
  %50 = call noundef ptr @_ZNK9MemRegion3endEv(ptr noundef nonnull align 8 dereferenceable(16) %5)
  %51 = call noundef ptr @_ZNK9MemRegion3endEv(ptr noundef nonnull align 8 dereferenceable(16) %9)
  %52 = icmp uge ptr %50, %51
  br i1 %52, label %53, label %54

53:                                               ; preds = %49
  call void @_ZN9MemRegionC2Ev(ptr noundef nonnull align 8 dereferenceable(16) %4)
  br label %70

54:                                               ; preds = %49, %45
  %55 = call noundef ptr @_ZNK9MemRegion5startEv(ptr noundef nonnull align 8 dereferenceable(16) %5)
  %56 = call noundef ptr @_ZNK9MemRegion5startEv(ptr noundef nonnull align 8 dereferenceable(16) %9)
  %57 = icmp ugt ptr %55, %56
  br i1 %57, label %58, label %66

58:                                               ; preds = %54
  %59 = call noundef ptr @_ZNK9MemRegion3endEv(ptr noundef nonnull align 8 dereferenceable(16) %5)
  %60 = call noundef ptr @_ZNK9MemRegion3endEv(ptr noundef nonnull align 8 dereferenceable(16) %9)
  %61 = icmp ult ptr %59, %60
  br i1 %61, label %62, label %66

62:                                               ; preds = %58
  br label %63

63:                                               ; preds = %62
  %64 = load ptr, ptr @g_assert_poison, align 8
  store i8 88, ptr %64, align 1
  call void (ptr, i32, ptr, ptr, ...) @_Z15report_vm_errorPKciS0_S0_z(ptr noundef @.str, i32 noundef 98, ptr noundef @.str.4, ptr noundef @.str.5) #5
  unreachable

65:                                               ; No predecessors!
  call void @_ZN9MemRegionC2Ev(ptr noundef nonnull align 8 dereferenceable(16) %4)
  br label %70

66:                                               ; preds = %58, %54
  br label %67

67:                                               ; preds = %66
  %68 = load ptr, ptr @g_assert_poison, align 8
  store i8 88, ptr %68, align 1
  call void @_Z28report_should_not_reach_herePKci(ptr noundef @.str, i32 noundef 101) #5
  unreachable

69:                                               ; No predecessors!
  call void @_ZN9MemRegionC2Ev(ptr noundef nonnull align 8 dereferenceable(16) %4)
  br label %70

70:                                               ; preds = %69, %65, %53, %42, %31, %24, %13
  %71 = load { ptr, i64 }, ptr %4, align 8
  ret { ptr, i64 } %71
}