; Function Attrs: mustprogress nounwind uwtable
define hidden { ptr, i64 } @_ZNK9MemRegion5minusES_(ptr nocapture noundef nonnull readonly align 8 dereferenceable(16) %0, ptr %1, i64 %2) local_unnamed_addr #1 align 2 {
  %4 = getelementptr inbounds ptr, ptr %1, i64 %2
  %5 = load ptr, ptr %0, align 8
  %.not = icmp ugt ptr %4, %5
  br i1 %.not, label %9, label %6

6:                                                ; preds = %3
  %7 = getelementptr inbounds i8, ptr %0, i64 8
  %8 = load i64, ptr %7, align 8
  %.idx = and i64 %8, 2305843009213693951
  br label %32

9:                                                ; preds = %3
  %.not1 = icmp ult ptr %5, %1
  %.phi.trans.insert = getelementptr inbounds i8, ptr %0, i64 8
  %.pre = load i64, ptr %.phi.trans.insert, align 8
  br i1 %.not1, label %._crit_edge, label %10

10:                                               ; preds = %9
  %11 = getelementptr inbounds ptr, ptr %5, i64 %.pre
  %.not2 = icmp ugt ptr %4, %11
  br i1 %.not2, label %._crit_edge, label %12

12:                                               ; preds = %10
  %13 = ptrtoint ptr %11 to i64
  %14 = ptrtoint ptr %4 to i64
  %15 = sub i64 %13, %14
  %16 = lshr i64 %15, 3
  br label %32

._crit_edge:                                      ; preds = %9, %10
  %17 = getelementptr inbounds ptr, ptr %5, i64 %.pre
  %.not3 = icmp ugt ptr %17, %1
  br i1 %.not3, label %19, label %18

18:                                               ; preds = %._crit_edge
  %.idx25 = and i64 %.pre, 2305843009213693951
  br label %32

19:                                               ; preds = %._crit_edge
  %.not4 = icmp ugt ptr %5, %1
  %.not5 = icmp ult ptr %4, %17
  %or.cond = or i1 %.not4, %.not5
  br i1 %or.cond, label %25, label %20

20:                                               ; preds = %19
  %21 = ptrtoint ptr %1 to i64
  %22 = ptrtoint ptr %5 to i64
  %23 = sub i64 %21, %22
  %24 = lshr i64 %23, 3
  br label %32

25:                                               ; preds = %19
  br i1 %.not1, label %27, label %26

26:                                               ; preds = %25
  br i1 %.not5, label %30, label %32

27:                                               ; preds = %25
  br i1 %.not5, label %28, label %30

28:                                               ; preds = %27
  %29 = load ptr, ptr @g_assert_poison, align 8
  store i8 88, ptr %29, align 1
  tail call void (ptr, i32, ptr, ptr, ...) @_Z15report_vm_errorPKciS0_S0_z(ptr noundef nonnull @.str, i32 noundef 98, ptr noundef nonnull @.str.4, ptr noundef nonnull @.str.5) #5
  unreachable

30:                                               ; preds = %26, %27
  %31 = load ptr, ptr @g_assert_poison, align 8
  store i8 88, ptr %31, align 1
  tail call void @_Z28report_should_not_reach_herePKci(ptr noundef nonnull @.str, i32 noundef 101) #5
  unreachable

32:                                               ; preds = %26, %20, %18, %12, %6
  %.sroa.6.0 = phi i64 [ %24, %20 ], [ %.idx25, %18 ], [ %16, %12 ], [ %.idx, %6 ], [ 0, %26 ]
  %.sroa.024.0 = phi ptr [ %5, %20 ], [ %5, %18 ], [ %4, %12 ], [ %5, %6 ], [ null, %26 ]
  %.fca.0.insert = insertvalue { ptr, i64 } poison, ptr %.sroa.024.0, 0
  %.fca.1.insert = insertvalue { ptr, i64 } %.fca.0.insert, i64 %.sroa.6.0, 1
  ret { ptr, i64 } %.fca.1.insert
}